target datalayout = "e-m:e-p270:32:32-p271:32:32-p272:64:64-i64:64-i128:128-f80:128-n8:16:32:64-S128"
target triple = "x86_64-pc-linux-gnu"

%struct.H5G_bt2_ud_common_t = type { ptr, ptr, ptr, i32, i64, ptr, ptr }
%struct.H5G_dense_bt2_name_rec_t = type { [7 x i8], i32 }
%struct.H5G_bt2_ud_rm_t = type { %struct.H5G_bt2_ud_common_t, i8, i64, ptr, i8 }
%struct.H5G_fh_ud_rm_t = type { ptr, i64, ptr, i8 }

@.str = private unnamed_addr constant [102 x i8] c"generated/home/dtcxzyw/WorkSpace/Projects/compilers/llvm-opt-benchmark/bench/hdf5/hdf5/src/H5Gdense.c\00", align 1
@H5E_SYM_g = external global i64, align 8
@H5E_CANTREMOVE_g = external global i64, align 8
@H5E_CANTOPERATE_g = external global i64, align 8
@__func__.H5G__dense_remove_bt2_cb = private unnamed_addr constant [25 x i8] c"H5G__dense_remove_bt2_cb\00", align 1
@.str.44 = private unnamed_addr constant [29 x i8] c"link removal callback failed\00", align 1
@.str.45 = private unnamed_addr constant [40 x i8] c"unable to remove link from fractal heap\00", align 1

; Function Attrs: nounwind uwtable
define internal i32 @H5G__dense_remove_bt2_cb(ptr noundef %0, ptr noundef %1) #0 {
  %3 = alloca ptr, align 8
  %4 = alloca ptr, align 8
  %5 = alloca ptr, align 8
  %6 = alloca ptr, align 8
  %7 = alloca %struct.H5G_fh_ud_rm_t, align 8
  %8 = alloca i32, align 4
  %9 = alloca i8, align 1
  store ptr %0, ptr %3, align 8
  store ptr %1, ptr %4, align 8
  %10 = load ptr, ptr %3, align 8
  store ptr %10, ptr %5, align 8
  %11 = load ptr, ptr %4, align 8
  store ptr %11, ptr %6, align 8
  store i32 0, ptr %8, align 4
  store i8 0, ptr %9, align 1
  %12 = load ptr, ptr %6, align 8
  %13 = getelementptr inbounds %struct.H5G_bt2_ud_rm_t, ptr %12, i32 0, i32 0
  %14 = getelementptr inbounds %struct.H5G_bt2_ud_common_t, ptr %13, i32 0, i32 0
  %15 = load ptr, ptr %14, align 8
  %16 = getelementptr inbounds %struct.H5G_fh_ud_rm_t, ptr %7, i32 0, i32 0
  store ptr %15, ptr %16, align 8
  %17 = load ptr, ptr %6, align 8
  %18 = getelementptr inbounds %struct.H5G_bt2_ud_rm_t, ptr %17, i32 0, i32 2
  %19 = load i64, ptr %18, align 8
  %20 = getelementptr inbounds %struct.H5G_fh_ud_rm_t, ptr %7, i32 0, i32 1
  store i64 %19, ptr %20, align 8
  %21 = load ptr, ptr %6, align 8
  %22 = getelementptr inbounds %struct.H5G_bt2_ud_rm_t, ptr %21, i32 0, i32 3
  %23 = load ptr, ptr %22, align 8
  %24 = getelementptr inbounds %struct.H5G_fh_ud_rm_t, ptr %7, i32 0, i32 2
  store ptr %23, ptr %24, align 8
  %25 = load ptr, ptr %6, align 8
  %26 = getelementptr inbounds %struct.H5G_bt2_ud_rm_t, ptr %25, i32 0, i32 4
  %27 = load i8, ptr %26, align 8
  %28 = trunc i8 %27 to i1
  %29 = getelementptr inbounds %struct.H5G_fh_ud_rm_t, ptr %7, i32 0, i32 3
  %30 = zext i1 %28 to i8
  store i8 %30, ptr %29, align 8
  %31 = load ptr, ptr %6, align 8
  %32 = getelementptr inbounds %struct.H5G_bt2_ud_rm_t, ptr %31, i32 0, i32 0
  %33 = getelementptr inbounds %struct.H5G_bt2_ud_common_t, ptr %32, i32 0, i32 1
  %34 = load ptr, ptr %33, align 8
  %35 = load ptr, ptr %5, align 8
  %36 = getelementptr inbounds %struct.H5G_dense_bt2_name_rec_t, ptr %35, i32 0, i32 0
  %37 = getelementptr inbounds [7 x i8], ptr %36, i64 0, i64 0
  %38 = call i32 @H5HF_op(ptr noundef %34, ptr noundef %37, ptr noundef @H5G__dense_remove_fh_cb, ptr noundef %7)
  %39 = icmp slt i32 %38, 0
  br i1 %39, label %40, label %55

40:                                               ; preds = %2
  br label %41

41:                                               ; preds = %40
  br label %42

42:                                               ; preds = %41
  br label %43

43:                                               ; preds = %42
  %44 = load i64, ptr @H5E_SYM_g, align 8
  %45 = load i64, ptr @H5E_CANTOPERATE_g, align 8
  %46 = call i32 (ptr, ptr, i32, i64, i64, ptr, ...) @H5E_printf_stack(ptr noundef @.str, ptr noundef @__func__.H5G__dense_remove_bt2_cb, i32 noundef 1260, i64 noundef %44, i64 noundef %45, ptr noundef @.str.44)
  br label %47

47:                                               ; preds = %43
  store i8 1, ptr %9, align 1
  %48 = load i8, ptr %9, align 1
  %49 = trunc i8 %48 to i1
  %50 = zext i1 %49 to i8
  store i8 %50, ptr %9, align 1
  br label %51

51:                                               ; preds = %47
  br label %52

52:                                               ; preds = %51
  store i32 -1, ptr %8, align 4
  br label %87

53:                                               ; No predecessors!
  br label %54

54:                                               ; preds = %53
  br label %55

55:                                               ; preds = %54, %2
  %56 = load ptr, ptr %6, align 8
  %57 = getelementptr inbounds %struct.H5G_bt2_ud_rm_t, ptr %56, i32 0, i32 1
  %58 = load i8, ptr %57, align 8
  %59 = trunc i8 %58 to i1
  br i1 %59, label %60, label %86

60:                                               ; preds = %55
  %61 = load ptr, ptr %6, align 8
  %62 = getelementptr inbounds %struct.H5G_bt2_ud_rm_t, ptr %61, i32 0, i32 0
  %63 = getelementptr inbounds %struct.H5G_bt2_ud_common_t, ptr %62, i32 0, i32 1
  %64 = load ptr, ptr %63, align 8
  %65 = load ptr, ptr %5, align 8
  %66 = getelementptr inbounds %struct.H5G_dense_bt2_name_rec_t, ptr %65, i32 0, i32 0
  %67 = getelementptr inbounds [7 x i8], ptr %66, i64 0, i64 0
  %68 = call i32 @H5HF_remove(ptr noundef %64, ptr noundef %67)
  %69 = icmp slt i32 %68, 0
  br i1 %69, label %70, label %85

70:                                               ; preds = %60
  br label %71

71:                                               ; preds = %70
  br label %72

72:                                               ; preds = %71
  br label %73

73:                                               ; preds = %72
  %74 = load i64, ptr @H5E_SYM_g, align 8
  %75 = load i64, ptr @H5E_CANTREMOVE_g, align 8
  %76 = call i32 (ptr, ptr, i32, i64, i64, ptr, ...) @H5E_printf_stack(ptr noundef @.str, ptr noundef @__func__.H5G__dense_remove_bt2_cb, i32 noundef 1265, i64 noundef %74, i64 noundef %75, ptr noundef @.str.45)
  br label %77

77:                                               ; preds = %73
  store i8 1, ptr %9, align 1
  %78 = load i8, ptr %9, align 1
  %79 = trunc i8 %78 to i1
  %80 = zext i1 %79 to i8
  store i8 %80, ptr %9, align 1
  br label %81

81:                                               ; preds = %77
  br label %82

82:                                               ; preds = %81
  store i32 -1, ptr %8, align 4
  br label %87

83:                                               ; No predecessors!
  br label %84

84:                                               ; preds = %83
  br label %85

85:                                               ; preds = %84, %60
  br label %86

86:                                               ; preds = %85, %55
  br label %87

87:                                               ; preds = %86, %82, %52
  %88 = load i32, ptr %8, align 4
  ret i32 %88
}