; Function Attrs: nounwind uwtable
define internal range(i32 -1, 1) i32 @H5G__dense_remove_bt2_cb(ptr noundef %0, ptr nocapture noundef readonly %1) #0 {
  %3 = alloca %struct.H5G_fh_ud_rm_t, align 8
  %4 = load ptr, ptr %1, align 8
  store ptr %4, ptr %3, align 8
  %5 = getelementptr inbounds i8, ptr %1, i64 64
  %6 = load i64, ptr %5, align 8
  %7 = getelementptr inbounds i8, ptr %3, i64 8
  store i64 %6, ptr %7, align 8
  %8 = getelementptr inbounds i8, ptr %1, i64 72
  %9 = load ptr, ptr %8, align 8
  %10 = getelementptr inbounds i8, ptr %3, i64 16
  store ptr %9, ptr %10, align 8
  %11 = getelementptr inbounds i8, ptr %1, i64 80
  %12 = load i8, ptr %11, align 8
  %13 = getelementptr inbounds i8, ptr %3, i64 24
  %14 = and i8 %12, 1
  store i8 %14, ptr %13, align 8
  %15 = getelementptr inbounds i8, ptr %1, i64 8
  %16 = load ptr, ptr %15, align 8
  %17 = call i32 @H5HF_op(ptr noundef %16, ptr noundef %0, ptr noundef nonnull @H5G__dense_remove_fh_cb, ptr noundef nonnull %3) #8
  %18 = icmp slt i32 %17, 0
  br i1 %18, label %19, label %23

19:                                               ; preds = %2
  %20 = load i64, ptr @H5E_SYM_g, align 8
  %21 = load i64, ptr @H5E_CANTOPERATE_g, align 8
  %22 = call i32 (ptr, ptr, i32, i64, i64, ptr, ...) @H5E_printf_stack(ptr noundef nonnull @.str, ptr noundef nonnull @__func__.H5G__dense_remove_bt2_cb, i32 noundef 1260, i64 noundef %20, i64 noundef %21, ptr noundef nonnull @.str.44) #8
  br label %35

23:                                               ; preds = %2
  %24 = getelementptr inbounds i8, ptr %1, i64 56
  %25 = load i8, ptr %24, align 8
  %26 = trunc i8 %25 to i1
  br i1 %26, label %27, label %35

27:                                               ; preds = %23
  %28 = load ptr, ptr %15, align 8
  %29 = call i32 @H5HF_remove(ptr noundef %28, ptr noundef %0) #8
  %30 = icmp slt i32 %29, 0
  br i1 %30, label %31, label %35

31:                                               ; preds = %27
  %32 = load i64, ptr @H5E_SYM_g, align 8
  %33 = load i64, ptr @H5E_CANTREMOVE_g, align 8
  %34 = call i32 (ptr, ptr, i32, i64, i64, ptr, ...) @H5E_printf_stack(ptr noundef nonnull @.str, ptr noundef nonnull @__func__.H5G__dense_remove_bt2_cb, i32 noundef 1265, i64 noundef %32, i64 noundef %33, ptr noundef nonnull @.str.45) #8
  br label %35

35:                                               ; preds = %23, %27, %31, %19
  %.0 = phi i32 [ -1, %19 ], [ -1, %31 ], [ 0, %27 ], [ 0, %23 ]
  ret i32 %.0
}